(dp0
S'2834856350ead235a97dcb1ebf13eac9d32bbc91'
p1
ccopy_reg
_reconstructor
p2
(csae.kvdb
_CacheEntry
p3
c__builtin__
object
p4
Ntp5
Rp6
(dp7
S'locked'
p8
I00
sS'value'
p9
(dp10
S'2015-11-22 214014'
p11
S'z 2st'
p12
sS'2015-11-22 214044'
p13
S'x 4st'
p14
sS'2015-11-22 214034'
p15
S'y 3st'
p16
ssS'flags'
p17
I0
sS'expiration'
p18
F1448455107.652105
sS'created_time'
p19
F1448455107.652105
sS'will_expire'
p20
I00
sbsS'c000c77a65b712443b871b273727f906ee3a3193'
p21
g2
(g3
g4
Ntp22
Rp23
(dp24
g8
I00
sg9
S'newusr'
p25
sg17
I0
sg18
F1448287632.608446
sg19
F1448287632.608446
sg20
I00
sbsS'ac01fdcf536f5384fc7782bc23ca43f6025cf3fa'
p26
g2
(g3
g4
Ntp27
Rp28
(dp29
g8
I00
sg9
(dp30
S'em'
p31
S'163@dic.com'
p32
ssg17
I0
sg18
F1448289679.191387
sg19
F1448289679.191387
sg20
I00
sbsS'e3a4eff69102d6a14db798cb42cec17c82f47189'
p33
g2
(g3
g4
Ntp34
Rp35
(dp36
g8
I00
sg9
(dp37
S'2015-11-22 214024'
p38
S'y 2'
p39
sS'2015-11-22 214014'
p40
S'z 1'
p41
sS'2015-11-22 214104'
p42
S'b 5'
p43
sS'2015-11-22 214044'
p44
S'v 3'
p45
sS'2015-11-22 214034'
p46
S'x 3'
p47
ssg17
I0
sg18
F1448455831.804656
sg19
F1448455831.804656
sg20
I00
sbsS'f5edd07bc7b1e9541b9a54228c4d392a0a85382e'
p48
g2
(g3
g4
Ntp49
Rp50
(dp51
g8
I00
sg9
(dp52
S'note1'
p53
S'en'
p54
sS'note3'
p55
V\u6d4b\u8bd5\u6d4b\u8bd5
p56
sS'note2'
p57
V\u518d\u6765\u4e00\u6b21 \u6069
p58
sS'note5'
p59
S'hist'
p60
sS'note4'
p61
V\u518d\u4e00\u6b21
p62
sS'note'
p63
S' this is the 2line'
p64
sS'tag'
p65
S'test'
p66
ssg17
I0
sg18
F1448378118.47879
sg19
F1448378118.47879
sg20
I00
sbsS'6738cfc9a003bd9c16a7918a3997c6940027fc39'
p67
g2
(g3
g4
Ntp68
Rp69
(dp70
g8
I00
sg9
(dp71
S'1448199644'
p72
S'b 4 line'
p73
sS'1448199604'
p74
S'a 2nd line'
p75
sS'1448199634'
p76
S's 3 line'
p77
ssg17
I0
sg18
F1448454675.524363
sg19
F1448454675.524363
sg20
I00
sbs.