(dp0
S'c000c77a65b712443b871b273727f906ee3a3193'
p1
ccopy_reg
_reconstructor
p2
(csae.kvdb
_CacheEntry
p3
c__builtin__
object
p4
Ntp5
Rp6
(dp7
S'locked'
p8
I00
sS'value'
p9
S'newusr'
p10
sS'flags'
p11
I0
sS'expiration'
p12
F1448287632.608446
sS'created_time'
p13
F1448287632.608446
sS'will_expire'
p14
I00
sbsS'f5edd07bc7b1e9541b9a54228c4d392a0a85382e'
p15
g2
(g3
g4
Ntp16
Rp17
(dp18
g8
I00
sg9
(dp19
S'note1'
p20
S'en'
p21
sS'note3'
p22
V\u6d4b\u8bd5\u6d4b\u8bd5
p23
sS'note2'
p24
V\u518d\u6765\u4e00\u6b21 \u6069
p25
sS'note5'
p26
S'hist'
p27
sS'note4'
p28
V\u518d\u4e00\u6b21
p29
sS'note'
p30
S' this is the 2line'
p31
sS'tag'
p32
S'test'
p33
ssg11
I0
sg12
F1448378118.47879
sg13
F1448378118.47879
sg14
I00
sbsS'ac01fdcf536f5384fc7782bc23ca43f6025cf3fa'
p34
g2
(g3
g4
Ntp35
Rp36
(dp37
g8
I00
sg9
(dp38
S'em'
p39
S'163@dic.com'
p40
ssg11
I0
sg12
F1448289679.191387
sg13
F1448289679.191387
sg14
I00
sbs.