(dp0
S'c000c77a65b712443b871b273727f906ee3a3193'
p1
ccopy_reg
_reconstructor
p2
(csae.kvdb
_CacheEntry
p3
c__builtin__
object
p4
Ntp5
Rp6
(dp7
S'locked'
p8
I00
sS'value'
p9
S'newusr'
p10
sS'flags'
p11
I0
sS'expiration'
p12
F1448287632.608446
sS'created_time'
p13
F1448287632.608446
sS'will_expire'
p14
I00
sbsS'2834856350ead235a97dcb1ebf13eac9d32bbc91'
p15
g2
(g3
g4
Ntp16
Rp17
(dp18
g8
I00
sg9
(dp19
S'2015-11-22 214014'
p20
S'z 2st'
p21
sS'2015-11-22 214044'
p22
S'x 4st'
p23
sS'2015-11-22 214034'
p24
S'y 3st'
p25
ssg11
I0
sg12
F1448455107.652105
sg13
F1448455107.652105
sg14
I00
sbsS'802a4bbd608144ab7a42ce114fa381e08bc0f705'
p26
g2
(g3
g4
Ntp27
Rp28
(dp29
g8
I00
sg9
(dp30
S'2015-11-22 21:41:04'
p31
S'hist'
p32
ssg11
I0
sg12
F1448456586.503467
sg13
F1448456586.503467
sg14
I00
sbsS'e3a4eff69102d6a14db798cb42cec17c82f47189'
p33
g2
(g3
g4
Ntp34
Rp35
(dp36
g8
I00
sg9
(dp37
S'2015-11-22 214024'
p38
S'y 2'
p39
sS'2015-11-22 214014'
p40
S'z 1'
p41
sS'2015-11-22 214104'
p42
S'b 5'
p43
sS'2015-11-22 214044'
p44
S'v 3'
p45
sS'2015-11-22 214034'
p46
S'x 3'
p47
ssg11
I0
sg12
F1448455831.804656
sg13
F1448455831.804656
sg14
I00
sbsS'ac01fdcf536f5384fc7782bc23ca43f6025cf3fa'
p48
g2
(g3
g4
Ntp49
Rp50
(dp51
g8
I00
sg9
(dp52
S'em'
p53
S'163@dic.com'
p54
ssg11
I0
sg12
F1448289679.191387
sg13
F1448289679.191387
sg14
I00
sbsS'f5edd07bc7b1e9541b9a54228c4d392a0a85382e'
p55
g2
(g3
g4
Ntp56
Rp57
(dp58
g8
I00
sg9
(dp59
S'note1'
p60
S'en'
p61
sS'note3'
p62
V\u6d4b\u8bd5\u6d4b\u8bd5
p63
sS'note2'
p64
V\u518d\u6765\u4e00\u6b21 \u6069
p65
sS'note5'
p66
S'hist'
p67
sS'note4'
p68
V\u518d\u4e00\u6b21
p69
sS'note'
p70
S' this is the 2line'
p71
sS'tag'
p72
S'test'
p73
ssg11
I0
sg12
F1448378118.47879
sg13
F1448378118.47879
sg14
I00
sbsS'6738cfc9a003bd9c16a7918a3997c6940027fc39'
p74
g2
(g3
g4
Ntp75
Rp76
(dp77
g8
I00
sg9
(dp78
S'1448199644'
p79
S'b 4 line'
p80
sS'1448199604'
p81
S'a 2nd line'
p82
sS'1448199634'
p83
S's 3 line'
p84
ssg11
I0
sg12
F1448454675.524363
sg13
F1448454675.524363
sg14
I00
sbs.